target datalayout = "e-m:e-p270:32:32-p271:32:32-p272:64:64-i64:64-i128:128-f80:128-n8:16:32:64-S128"
target triple = "x86_64-pc-linux-gnu"

%struct.AVPixFmtDescriptor = type { ptr, i8, i8, i8, i64, [4 x %struct.AVComponentDescriptor], ptr }
%struct.AVComponentDescriptor = type { i32, i32, i32, i32, i32 }
%struct.FFDrawContext = type { ptr, i32, i32, [4 x i32], [4 x i8], [4 x i8], i8, i8, i32, i32, i32, [3 x [3 x double]] }
%struct.FFDrawColor = type { [4 x i8], [4 x %union.anon] }
%union.anon = type { [4 x i32] }

; Function Attrs: nounwind uwtable
define void @ff_draw_color(ptr noundef %0, ptr noundef %1, ptr noundef %2) #0 {
  %4 = alloca ptr, align 8
  %5 = alloca ptr, align 8
  %6 = alloca ptr, align 8
  %7 = alloca [4 x double], align 16
  %8 = alloca [4 x double], align 16
  %9 = alloca ptr, align 8
  %10 = alloca i32, align 4
  %11 = alloca i32, align 4
  %12 = alloca i32, align 4
  %13 = alloca i32, align 4
  %14 = alloca i32, align 4
  store ptr %0, ptr %4, align 8, !tbaa !24
  store ptr %1, ptr %5, align 8, !tbaa !45
  store ptr %2, ptr %6, align 8, !tbaa !4
  call void @llvm.lifetime.start.p0(i64 32, ptr %7) #8
  call void @llvm.lifetime.start.p0(i64 32, ptr %8) #8
  call void @llvm.lifetime.start.p0(i64 8, ptr %9) #8
  %15 = load ptr, ptr %4, align 8, !tbaa !24
  %16 = getelementptr inbounds nuw %struct.FFDrawContext, ptr %15, i32 0, i32 0
  %17 = load ptr, ptr %16, align 8, !tbaa !34
  store ptr %17, ptr %9, align 8, !tbaa !11
  %18 = load ptr, ptr %6, align 8, !tbaa !4
  %19 = load ptr, ptr %5, align 8, !tbaa !45
  %20 = getelementptr inbounds nuw %struct.FFDrawColor, ptr %19, i32 0, i32 0
  %21 = getelementptr inbounds [4 x i8], ptr %20, i64 0, i64 0
  %22 = icmp ne ptr %18, %21
  br i1 %22, label %23, label %28

23:                                               ; preds = %3
  %24 = load ptr, ptr %5, align 8, !tbaa !45
  %25 = getelementptr inbounds nuw %struct.FFDrawColor, ptr %24, i32 0, i32 0
  %26 = getelementptr inbounds [4 x i8], ptr %25, i64 0, i64 0
  %27 = load ptr, ptr %6, align 8, !tbaa !4
  call void @llvm.memcpy.p0.p0.i64(ptr align 4 %26, ptr align 1 %27, i64 4, i1 false)
  br label %28

28:                                               ; preds = %23, %3
  %29 = load ptr, ptr %5, align 8, !tbaa !45
  %30 = getelementptr inbounds nuw %struct.FFDrawColor, ptr %29, i32 0, i32 1
  %31 = getelementptr inbounds [4 x %union.anon], ptr %30, i64 0, i64 0
  call void @llvm.memset.p0.i64(ptr align 4 %31, i8 0, i64 64, i1 false)
  call void @llvm.lifetime.start.p0(i64 4, ptr %10) #8
  store i32 0, ptr %10, align 4, !tbaa !9
  br label %32

32:                                               ; preds = %49, %28
  %33 = load i32, ptr %10, align 4, !tbaa !9
  %34 = icmp slt i32 %33, 4
  br i1 %34, label %36, label %35

35:                                               ; preds = %32
  call void @llvm.lifetime.end.p0(i64 4, ptr %10) #8
  br label %52

36:                                               ; preds = %32
  %37 = load ptr, ptr %5, align 8, !tbaa !45
  %38 = getelementptr inbounds nuw %struct.FFDrawColor, ptr %37, i32 0, i32 0
  %39 = load i32, ptr %10, align 4, !tbaa !9
  %40 = sext i32 %39 to i64
  %41 = getelementptr inbounds [4 x i8], ptr %38, i64 0, i64 %40
  %42 = load i8, ptr %41, align 1, !tbaa !19
  %43 = zext i8 %42 to i32
  %44 = sitofp i32 %43 to double
  %45 = fdiv nsz double %44, 2.550000e+02
  %46 = load i32, ptr %10, align 4, !tbaa !9
  %47 = sext i32 %46 to i64
  %48 = getelementptr inbounds [4 x double], ptr %8, i64 0, i64 %47
  store double %45, ptr %48, align 8, !tbaa !47
  br label %49

49:                                               ; preds = %36
  %50 = load i32, ptr %10, align 4, !tbaa !9
  %51 = add nsw i32 %50, 1
  store i32 %51, ptr %10, align 4, !tbaa !9
  br label %32, !llvm.loop !49

52:                                               ; preds = %35
  %53 = load ptr, ptr %4, align 8, !tbaa !24
  %54 = getelementptr inbounds nuw %struct.FFDrawContext, ptr %53, i32 0, i32 0
  %55 = load ptr, ptr %54, align 8, !tbaa !34
  %56 = getelementptr inbounds nuw %struct.AVPixFmtDescriptor, ptr %55, i32 0, i32 4
  %57 = load i64, ptr %56, align 8, !tbaa !13
  %58 = and i64 %57, 32
  %59 = icmp ne i64 %58, 0
  br i1 %59, label %60, label %63

60:                                               ; preds = %52
  %61 = getelementptr inbounds [4 x double], ptr %7, i64 0, i64 0
  %62 = getelementptr inbounds [4 x double], ptr %8, i64 0, i64 0
  call void @llvm.memcpy.p0.p0.i64(ptr align 16 %61, ptr align 16 %62, i64 24, i1 false)
  br label %69

63:                                               ; preds = %52
  %64 = getelementptr inbounds [4 x double], ptr %7, i64 0, i64 0
  %65 = getelementptr inbounds [4 x double], ptr %8, i64 0, i64 0
  %66 = load ptr, ptr %4, align 8, !tbaa !24
  %67 = getelementptr inbounds nuw %struct.FFDrawContext, ptr %66, i32 0, i32 11
  %68 = getelementptr inbounds [3 x [3 x double]], ptr %67, i64 0, i64 0
  call void @ff_matrix_mul_3x3_vec(ptr noundef %64, ptr noundef %65, ptr noundef %68)
  br label %69

69:                                               ; preds = %63, %60
  %70 = getelementptr inbounds [4 x double], ptr %8, i64 0, i64 3
  %71 = load double, ptr %70, align 8, !tbaa !47
  %72 = getelementptr inbounds [4 x double], ptr %7, i64 0, i64 3
  store double %71, ptr %72, align 8, !tbaa !47
  call void @llvm.lifetime.start.p0(i64 4, ptr %11) #8
  store i32 0, ptr %11, align 4, !tbaa !9
  br label %73

73:                                               ; preds = %125, %69
  %74 = load i32, ptr %11, align 4, !tbaa !9
  %75 = icmp slt i32 %74, 3
  br i1 %75, label %77, label %76

76:                                               ; preds = %73
  call void @llvm.lifetime.end.p0(i64 4, ptr %11) #8
  br label %128

77:                                               ; preds = %73
  call void @llvm.lifetime.start.p0(i64 4, ptr %12) #8
  %78 = load ptr, ptr %4, align 8, !tbaa !24
  %79 = getelementptr inbounds nuw %struct.FFDrawContext, ptr %78, i32 0, i32 0
  %80 = load ptr, ptr %79, align 8, !tbaa !34
  %81 = getelementptr inbounds nuw %struct.AVPixFmtDescriptor, ptr %80, i32 0, i32 4
  %82 = load i64, ptr %81, align 8, !tbaa !13
  %83 = and i64 %82, 32
  %84 = icmp ne i64 %83, 0
  br i1 %84, label %88, label %85

85:                                               ; preds = %77
  %86 = load i32, ptr %11, align 4, !tbaa !9
  %87 = icmp sgt i32 %86, 0
  br label %88

88:                                               ; preds = %85, %77
  %89 = phi i1 [ false, %77 ], [ %87, %85 ]
  %90 = zext i1 %89 to i32
  store i32 %90, ptr %12, align 4, !tbaa !9
  %91 = load ptr, ptr %4, align 8, !tbaa !24
  %92 = getelementptr inbounds nuw %struct.FFDrawContext, ptr %91, i32 0, i32 8
  %93 = load i32, ptr %92, align 4, !tbaa !38
  %94 = icmp eq i32 %93, 1
  br i1 %94, label %95, label %114

95:                                               ; preds = %88
  %96 = load i32, ptr %12, align 4, !tbaa !9
  %97 = icmp ne i32 %96, 0
  %98 = select nsz i1 %97, double 2.240000e+02, double 2.190000e+02
  %99 = fdiv nsz double %98, 2.550000e+02
  %100 = load i32, ptr %11, align 4, !tbaa !9
  %101 = sext i32 %100 to i64
  %102 = getelementptr inbounds [4 x double], ptr %7, i64 0, i64 %101
  %103 = load double, ptr %102, align 8, !tbaa !47
  %104 = fmul nsz double %103, %99
  store double %104, ptr %102, align 8, !tbaa !47
  %105 = load i32, ptr %12, align 4, !tbaa !9
  %106 = icmp ne i32 %105, 0
  %107 = select nsz i1 %106, double 1.280000e+02, double 1.600000e+01
  %108 = fdiv nsz double %107, 2.550000e+02
  %109 = load i32, ptr %11, align 4, !tbaa !9
  %110 = sext i32 %109 to i64
  %111 = getelementptr inbounds [4 x double], ptr %7, i64 0, i64 %110
  %112 = load double, ptr %111, align 8, !tbaa !47
  %113 = fadd nsz double %112, %108
  store double %113, ptr %111, align 8, !tbaa !47
  br label %124

114:                                              ; preds = %88
  %115 = load i32, ptr %12, align 4, !tbaa !9
  %116 = icmp ne i32 %115, 0
  br i1 %116, label %117, label %123

117:                                              ; preds = %114
  %118 = load i32, ptr %11, align 4, !tbaa !9
  %119 = sext i32 %118 to i64
  %120 = getelementptr inbounds [4 x double], ptr %7, i64 0, i64 %119
  %121 = load double, ptr %120, align 8, !tbaa !47
  %122 = fadd nsz double %121, 5.000000e-01
  store double %122, ptr %120, align 8, !tbaa !47
  br label %123

123:                                              ; preds = %117, %114
  br label %124

124:                                              ; preds = %123, %95
  call void @llvm.lifetime.end.p0(i64 4, ptr %12) #8
  br label %125

125:                                              ; preds = %124
  %126 = load i32, ptr %11, align 4, !tbaa !9
  %127 = add nsw i32 %126, 1
  store i32 %127, ptr %11, align 4, !tbaa !9
  br label %73, !llvm.loop !50

128:                                              ; preds = %76
  %129 = load ptr, ptr %9, align 8, !tbaa !11
  %130 = getelementptr inbounds nuw %struct.AVPixFmtDescriptor, ptr %129, i32 0, i32 1
  %131 = load i8, ptr %130, align 8, !tbaa !16
  %132 = zext i8 %131 to i32
  %133 = icmp sle i32 %132, 2
  br i1 %133, label %134, label %138

134:                                              ; preds = %128
  %135 = getelementptr inbounds [4 x double], ptr %7, i64 0, i64 3
  %136 = load double, ptr %135, align 8, !tbaa !47
  %137 = getelementptr inbounds [4 x double], ptr %7, i64 0, i64 1
  store double %136, ptr %137, align 8, !tbaa !47
  br label %138

138:                                              ; preds = %134, %128
  call void @llvm.lifetime.start.p0(i64 4, ptr %13) #8
  store i32 0, ptr %13, align 4, !tbaa !9
  br label %139

139:                                              ; preds = %232, %138
  %140 = load i32, ptr %13, align 4, !tbaa !9
  %141 = load ptr, ptr %9, align 8, !tbaa !11
  %142 = getelementptr inbounds nuw %struct.AVPixFmtDescriptor, ptr %141, i32 0, i32 1
  %143 = load i8, ptr %142, align 8, !tbaa !16
  %144 = zext i8 %143 to i32
  %145 = icmp ult i32 %140, %144
  br i1 %145, label %147, label %146

146:                                              ; preds = %139
  call void @llvm.lifetime.end.p0(i64 4, ptr %13) #8
  br label %235

147:                                              ; preds = %139
  call void @llvm.lifetime.start.p0(i64 4, ptr %14) #8
  %148 = load i32, ptr %13, align 4, !tbaa !9
  %149 = zext i32 %148 to i64
  %150 = getelementptr inbounds nuw [4 x double], ptr %7, i64 0, i64 %149
  %151 = load double, ptr %150, align 8, !tbaa !47
  %152 = load ptr, ptr %4, align 8, !tbaa !24
  %153 = getelementptr inbounds nuw %struct.FFDrawContext, ptr %152, i32 0, i32 0
  %154 = load ptr, ptr %153, align 8, !tbaa !34
  %155 = getelementptr inbounds nuw %struct.AVPixFmtDescriptor, ptr %154, i32 0, i32 5
  %156 = load i32, ptr %13, align 4, !tbaa !9
  %157 = zext i32 %156 to i64
  %158 = getelementptr inbounds nuw [4 x %struct.AVComponentDescriptor], ptr %155, i64 0, i64 %157
  %159 = getelementptr inbounds nuw %struct.AVComponentDescriptor, ptr %158, i32 0, i32 4
  %160 = load i32, ptr %159, align 4, !tbaa !20
  %161 = load ptr, ptr %4, align 8, !tbaa !24
  %162 = getelementptr inbounds nuw %struct.FFDrawContext, ptr %161, i32 0, i32 0
  %163 = load ptr, ptr %162, align 8, !tbaa !34
  %164 = getelementptr inbounds nuw %struct.AVPixFmtDescriptor, ptr %163, i32 0, i32 5
  %165 = load i32, ptr %13, align 4, !tbaa !9
  %166 = zext i32 %165 to i64
  %167 = getelementptr inbounds nuw [4 x %struct.AVComponentDescriptor], ptr %164, i64 0, i64 %166
  %168 = getelementptr inbounds nuw %struct.AVComponentDescriptor, ptr %167, i32 0, i32 3
  %169 = load i32, ptr %168, align 4, !tbaa !31
  %170 = add nsw i32 %160, %169
  %171 = shl i32 1, %170
  %172 = sub nsw i32 %171, 1
  %173 = sitofp i32 %172 to double
  %174 = call nsz double @llvm.fmuladd.f64(double %151, double %173, double 5.000000e-01)
  %175 = fptoui double %174 to i32
  store i32 %175, ptr %14, align 4, !tbaa !9
  %176 = load ptr, ptr %9, align 8, !tbaa !11
  %177 = getelementptr inbounds nuw %struct.AVPixFmtDescriptor, ptr %176, i32 0, i32 5
  %178 = load i32, ptr %13, align 4, !tbaa !9
  %179 = zext i32 %178 to i64
  %180 = getelementptr inbounds nuw [4 x %struct.AVComponentDescriptor], ptr %177, i64 0, i64 %179
  %181 = getelementptr inbounds nuw %struct.AVComponentDescriptor, ptr %180, i32 0, i32 4
  %182 = load i32, ptr %181, align 4, !tbaa !20
  %183 = icmp sgt i32 %182, 8
  br i1 %183, label %184, label %208

184:                                              ; preds = %147
  %185 = load i32, ptr %14, align 4, !tbaa !9
  %186 = trunc i32 %185 to i16
  %187 = load ptr, ptr %5, align 8, !tbaa !45
  %188 = getelementptr inbounds nuw %struct.FFDrawColor, ptr %187, i32 0, i32 1
  %189 = load ptr, ptr %9, align 8, !tbaa !11
  %190 = getelementptr inbounds nuw %struct.AVPixFmtDescriptor, ptr %189, i32 0, i32 5
  %191 = load i32, ptr %13, align 4, !tbaa !9
  %192 = zext i32 %191 to i64
  %193 = getelementptr inbounds nuw [4 x %struct.AVComponentDescriptor], ptr %190, i64 0, i64 %192
  %194 = getelementptr inbounds nuw %struct.AVComponentDescriptor, ptr %193, i32 0, i32 0
  %195 = load i32, ptr %194, align 4, !tbaa !17
  %196 = sext i32 %195 to i64
  %197 = getelementptr inbounds [4 x %union.anon], ptr %188, i64 0, i64 %196
  %198 = load ptr, ptr %9, align 8, !tbaa !11
  %199 = getelementptr inbounds nuw %struct.AVPixFmtDescriptor, ptr %198, i32 0, i32 5
  %200 = load i32, ptr %13, align 4, !tbaa !9
  %201 = zext i32 %200 to i64
  %202 = getelementptr inbounds nuw [4 x %struct.AVComponentDescriptor], ptr %199, i64 0, i64 %201
  %203 = getelementptr inbounds nuw %struct.AVComponentDescriptor, ptr %202, i32 0, i32 2
  %204 = load i32, ptr %203, align 4, !tbaa !21
  %205 = sdiv i32 %204, 2
  %206 = sext i32 %205 to i64
  %207 = getelementptr inbounds [8 x i16], ptr %197, i64 0, i64 %206
  store i16 %186, ptr %207, align 2, !tbaa !19
  br label %231

208:                                              ; preds = %147
  %209 = load i32, ptr %14, align 4, !tbaa !9
  %210 = trunc i32 %209 to i8
  %211 = load ptr, ptr %5, align 8, !tbaa !45
  %212 = getelementptr inbounds nuw %struct.FFDrawColor, ptr %211, i32 0, i32 1
  %213 = load ptr, ptr %9, align 8, !tbaa !11
  %214 = getelementptr inbounds nuw %struct.AVPixFmtDescriptor, ptr %213, i32 0, i32 5
  %215 = load i32, ptr %13, align 4, !tbaa !9
  %216 = zext i32 %215 to i64
  %217 = getelementptr inbounds nuw [4 x %struct.AVComponentDescriptor], ptr %214, i64 0, i64 %216
  %218 = getelementptr inbounds nuw %struct.AVComponentDescriptor, ptr %217, i32 0, i32 0
  %219 = load i32, ptr %218, align 4, !tbaa !17
  %220 = sext i32 %219 to i64
  %221 = getelementptr inbounds [4 x %union.anon], ptr %212, i64 0, i64 %220
  %222 = load ptr, ptr %9, align 8, !tbaa !11
  %223 = getelementptr inbounds nuw %struct.AVPixFmtDescriptor, ptr %222, i32 0, i32 5
  %224 = load i32, ptr %13, align 4, !tbaa !9
  %225 = zext i32 %224 to i64
  %226 = getelementptr inbounds nuw [4 x %struct.AVComponentDescriptor], ptr %223, i64 0, i64 %225
  %227 = getelementptr inbounds nuw %struct.AVComponentDescriptor, ptr %226, i32 0, i32 2
  %228 = load i32, ptr %227, align 4, !tbaa !21
  %229 = sext i32 %228 to i64
  %230 = getelementptr inbounds [16 x i8], ptr %221, i64 0, i64 %229
  store i8 %210, ptr %230, align 1, !tbaa !19
  br label %231

231:                                              ; preds = %208, %184
  call void @llvm.lifetime.end.p0(i64 4, ptr %14) #8
  br label %232

232:                                              ; preds = %231
  %233 = load i32, ptr %13, align 4, !tbaa !9
  %234 = add i32 %233, 1
  store i32 %234, ptr %13, align 4, !tbaa !9
  br label %139, !llvm.loop !51

235:                                              ; preds = %146
  call void @llvm.lifetime.end.p0(i64 8, ptr %9) #8
  call void @llvm.lifetime.end.p0(i64 32, ptr %8) #8
  call void @llvm.lifetime.end.p0(i64 32, ptr %7) #8
  ret void
}