; Function Attrs: nounwind uwtable
define void @ff_draw_color(ptr noundef %0, ptr noundef captures(address) %1, ptr noundef readonly captures(address) %2) local_unnamed_addr #0 {
  %4 = alloca [4 x double], align 16
  %5 = alloca [4 x double], align 16
  call void @llvm.lifetime.start.p0(i64 32, ptr nonnull %4) #11
  call void @llvm.lifetime.start.p0(i64 32, ptr nonnull %5) #11
  %6 = load ptr, ptr %0, align 8, !tbaa !25
  %.not = icmp eq ptr %2, %1
  br i1 %.not, label %9, label %7

7:                                                ; preds = %3
  %8 = load i32, ptr %2, align 1
  store i32 %8, ptr %1, align 4
  br label %9

9:                                                ; preds = %7, %3
  %10 = getelementptr inbounds nuw i8, ptr %1, i64 4
  tail call void @llvm.memset.p0.i64(ptr noundef nonnull align 4 dereferenceable(64) %10, i8 0, i64 64, i1 false)
  br label %16

11:                                               ; preds = %16
  %12 = load ptr, ptr %0, align 8, !tbaa !25
  %13 = getelementptr inbounds nuw i8, ptr %12, i64 16
  %14 = load i64, ptr %13, align 8, !tbaa !4
  %15 = and i64 %14, 32
  %.not50 = icmp eq i64 %15, 0
  br i1 %.not50, label %23, label %22

16:                                               ; preds = %9, %16
  %indvars.iv = phi i64 [ 0, %9 ], [ %indvars.iv.next, %16 ]
  %17 = getelementptr inbounds nuw [4 x i8], ptr %1, i64 0, i64 %indvars.iv
  %18 = load i8, ptr %17, align 1, !tbaa !15
  %19 = uitofp i8 %18 to double
  %20 = fdiv nsz double %19, 2.550000e+02
  %21 = getelementptr inbounds nuw [4 x double], ptr %5, i64 0, i64 %indvars.iv
  store double %20, ptr %21, align 8, !tbaa !37
  %indvars.iv.next = add nuw nsw i64 %indvars.iv, 1
  %exitcond.not = icmp eq i64 %indvars.iv.next, 4
  br i1 %exitcond.not, label %11, label %16, !llvm.loop !39

22:                                               ; preds = %11
  call void @llvm.memcpy.p0.p0.i64(ptr noundef nonnull align 16 dereferenceable(24) %4, ptr noundef nonnull align 16 dereferenceable(24) %5, i64 24, i1 false)
  br label %25

23:                                               ; preds = %11
  %24 = getelementptr inbounds nuw i8, ptr %0, i64 56
  call void @ff_matrix_mul_3x3_vec(ptr noundef nonnull %4, ptr noundef nonnull %5, ptr noundef nonnull %24) #11
  %.pre = load ptr, ptr %0, align 8, !tbaa !25
  %.phi.trans.insert = getelementptr inbounds nuw i8, ptr %.pre, i64 16
  %.pre82 = load i64, ptr %.phi.trans.insert, align 8, !tbaa !4
  br label %25

25:                                               ; preds = %23, %22
  %26 = phi i64 [ %.pre82, %23 ], [ %14, %22 ]
  %27 = getelementptr inbounds nuw i8, ptr %5, i64 24
  %28 = load double, ptr %27, align 8, !tbaa !37
  %29 = getelementptr inbounds nuw i8, ptr %4, i64 24
  store double %28, ptr %29, align 8, !tbaa !37
  %.fr59 = freeze i64 %26
  %30 = and i64 %.fr59, 32
  %.not51 = icmp eq i64 %30, 0
  %31 = getelementptr inbounds nuw i8, ptr %0, i64 44
  %32 = load i32, ptr %31, align 4, !tbaa !30
  %33 = icmp eq i32 %32, 1
  br i1 %33, label %.split.us, label %.split

.split.us:                                        ; preds = %25
  br i1 %.not51, label %.split.us.split, label %.split.us.split.us

.split.us.split.us:                               ; preds = %.split.us, %.split.us.split.us
  %indvars.iv71 = phi i64 [ %indvars.iv.next72, %.split.us.split.us ], [ 0, %.split.us ]
  %34 = getelementptr inbounds nuw [4 x double], ptr %4, i64 0, i64 %indvars.iv71
  %35 = load double, ptr %34, align 8, !tbaa !37
  %36 = fmul nsz double %35, 0x3FEB7B7B7B7B7B7B
  %37 = fadd nsz double %36, 0x3FB0101010101010
  store double %37, ptr %34, align 8, !tbaa !37
  %indvars.iv.next72 = add nuw nsw i64 %indvars.iv71, 1
  %exitcond74.not = icmp eq i64 %indvars.iv.next72, 3
  br i1 %exitcond74.not, label %.split55.us, label %.split.us.split.us, !llvm.loop !40

.split.us.split:                                  ; preds = %.split.us, %.split.us.split
  %indvars.iv75 = phi i64 [ %indvars.iv.next76, %.split.us.split ], [ 0, %.split.us ]
  %.not61 = icmp eq i64 %indvars.iv75, 0
  %unswitched.select = select i1 %.not61, double 0x3FEB7B7B7B7B7B7B, double 0x3FEC1C1C1C1C1C1C
  %38 = getelementptr inbounds nuw [4 x double], ptr %4, i64 0, i64 %indvars.iv75
  %39 = load double, ptr %38, align 8, !tbaa !37
  %40 = fmul nsz double %unswitched.select, %39
  %41 = select i1 %.not61, double 0x3FB0101010101010, double 0x3FE0101010101010
  %42 = fadd nsz double %41, %40
  store double %42, ptr %38, align 8, !tbaa !37
  %indvars.iv.next76 = add nuw nsw i64 %indvars.iv75, 1
  %exitcond78.not = icmp eq i64 %indvars.iv.next76, 3
  br i1 %exitcond78.not, label %.split55.us, label %.split.us.split, !llvm.loop !40

.split:                                           ; preds = %25
  br i1 %.not51, label %.split.split, label %.split55.us

.split55.us:                                      ; preds = %50, %.split.us.split.us, %.split.us.split, %.split
  %43 = getelementptr inbounds nuw i8, ptr %6, i64 8
  %44 = load i8, ptr %43, align 8, !tbaa !11
  %45 = icmp ult i8 %44, 3
  br i1 %45, label %51, label %.lr.ph

.split.split:                                     ; preds = %.split, %50
  %indvars.iv67 = phi i64 [ %indvars.iv.next68, %50 ], [ 0, %.split ]
  %.not60 = icmp eq i64 %indvars.iv67, 0
  br i1 %.not60, label %50, label %46

46:                                               ; preds = %.split.split
  %47 = getelementptr inbounds nuw [4 x double], ptr %4, i64 0, i64 %indvars.iv67
  %48 = load double, ptr %47, align 8, !tbaa !37
  %49 = fadd nsz double %48, 5.000000e-01
  store double %49, ptr %47, align 8, !tbaa !37
  br label %50

50:                                               ; preds = %.split.split, %46
  %indvars.iv.next68 = add nuw nsw i64 %indvars.iv67, 1
  %exitcond70.not = icmp eq i64 %indvars.iv.next68, 3
  br i1 %exitcond70.not, label %.split55.us, label %.split.split, !llvm.loop !40

51:                                               ; preds = %.split55.us
  %52 = load double, ptr %29, align 8, !tbaa !37
  %53 = getelementptr inbounds nuw i8, ptr %4, i64 8
  store double %52, ptr %53, align 8, !tbaa !37
  %.not62 = icmp eq i8 %44, 0
  br i1 %.not62, label %._crit_edge, label %.lr.ph

.lr.ph:                                           ; preds = %.split55.us, %51
  %54 = getelementptr inbounds nuw i8, ptr %6, i64 24
  br label %55

._crit_edge:                                      ; preds = %88, %51
  call void @llvm.lifetime.end.p0(i64 32, ptr nonnull %5) #11
  call void @llvm.lifetime.end.p0(i64 32, ptr nonnull %4) #11
  ret void

55:                                               ; preds = %.lr.ph, %88
  %indvars.iv79 = phi i64 [ 0, %.lr.ph ], [ %indvars.iv.next80, %88 ]
  %56 = getelementptr inbounds nuw [4 x double], ptr %4, i64 0, i64 %indvars.iv79
  %57 = load double, ptr %56, align 8, !tbaa !37
  %58 = load ptr, ptr %0, align 8, !tbaa !25
  %59 = getelementptr inbounds nuw i8, ptr %58, i64 24
  %60 = getelementptr inbounds nuw [4 x %struct.AVComponentDescriptor], ptr %59, i64 0, i64 %indvars.iv79
  %61 = getelementptr inbounds nuw i8, ptr %60, i64 16
  %62 = load i32, ptr %61, align 4, !tbaa !16
  %63 = getelementptr inbounds nuw i8, ptr %60, i64 12
  %64 = load i32, ptr %63, align 4, !tbaa !21
  %65 = add nsw i32 %64, %62
  %notmask = shl nsw i32 -1, %65
  %66 = xor i32 %notmask, -1
  %67 = uitofp nneg i32 %66 to double
  %68 = call nsz double @llvm.fmuladd.f64(double %57, double %67, double 5.000000e-01)
  %69 = fptoui double %68 to i32
  %70 = getelementptr inbounds nuw [4 x %struct.AVComponentDescriptor], ptr %54, i64 0, i64 %indvars.iv79
  %71 = getelementptr inbounds nuw i8, ptr %70, i64 16
  %72 = load i32, ptr %71, align 4, !tbaa !16
  %73 = icmp sgt i32 %72, 8
  %74 = load i32, ptr %70, align 4, !tbaa !12
  %75 = sext i32 %74 to i64
  %76 = getelementptr inbounds [4 x %union.anon], ptr %10, i64 0, i64 %75
  %77 = getelementptr inbounds nuw i8, ptr %70, i64 8
  %78 = load i32, ptr %77, align 4, !tbaa !17
  br i1 %73, label %79, label %84

79:                                               ; preds = %55
  %80 = trunc i32 %69 to i16
  %81 = sdiv i32 %78, 2
  %82 = sext i32 %81 to i64
  %83 = getelementptr inbounds [8 x i16], ptr %76, i64 0, i64 %82
  store i16 %80, ptr %83, align 2, !tbaa !15
  br label %88

84:                                               ; preds = %55
  %85 = trunc i32 %69 to i8
  %86 = sext i32 %78 to i64
  %87 = getelementptr inbounds [16 x i8], ptr %76, i64 0, i64 %86
  store i8 %85, ptr %87, align 1, !tbaa !15
  br label %88

88:                                               ; preds = %84, %79
  %indvars.iv.next80 = add nuw nsw i64 %indvars.iv79, 1
  %89 = load i8, ptr %43, align 8, !tbaa !11
  %90 = zext i8 %89 to i64
  %91 = icmp samesign ult i64 %indvars.iv.next80, %90
  br i1 %91, label %55, label %._crit_edge, !llvm.loop !41
}